target datalayout = "e-m:e-p270:32:32-p271:32:32-p272:64:64-i64:64-i128:128-f80:128-n8:16:32:64-S128"
target triple = "x86_64-pc-linux-gnu"

%"class.std::shared_ptr.44" = type { %"class.std::__shared_ptr.45" }
%"class.std::__shared_ptr.45" = type { ptr, %"class.std::__shared_count" }
%"class.std::__shared_count" = type { ptr }
%"class.open3d::geometry::RGBDImage" = type { %"class.open3d::geometry::Geometry2D", %"class.open3d::geometry::Image", %"class.open3d::geometry::Image" }
%"class.open3d::geometry::Geometry2D" = type { %"class.open3d::geometry::Geometry" }
%"class.open3d::geometry::Geometry" = type { ptr, i32, i32, %"class.std::__cxx11::basic_string" }
%"class.std::__cxx11::basic_string" = type { %"struct.std::__cxx11::basic_string<char>::_Alloc_hider", i64, %union.anon }
%"struct.std::__cxx11::basic_string<char>::_Alloc_hider" = type { ptr }
%union.anon = type { i64, [8 x i8] }
%"class.open3d::geometry::Image" = type { %"class.open3d::geometry::Geometry2D", i32, i32, i32, i32, %"class.std::vector.29" }
%"class.std::vector.29" = type { %"struct.std::_Vector_base.30" }
%"struct.std::_Vector_base.30" = type { %"struct.std::_Vector_base<unsigned char, std::allocator<unsigned char>>::_Vector_impl" }
%"struct.std::_Vector_base<unsigned char, std::allocator<unsigned char>>::_Vector_impl" = type { %"struct.std::_Vector_base<unsigned char, std::allocator<unsigned char>>::_Vector_impl_data" }
%"struct.std::_Vector_base<unsigned char, std::allocator<unsigned char>>::_Vector_impl_data" = type { ptr, ptr, ptr }
%"class.open3d::pipelines::integration::TSDFVolume" = type <{ ptr, double, double, i32, [4 x i8] }>
%"class.open3d::camera::PinholeCameraIntrinsic" = type { %"class.open3d::utility::IJsonConvertible", i32, i32, %"class.Eigen::Matrix.34" }
%"class.open3d::utility::IJsonConvertible" = type { ptr }
%"class.Eigen::Matrix.34" = type { %"class.Eigen::PlainObjectBase.35" }
%"class.Eigen::PlainObjectBase.35" = type { %"class.Eigen::DenseStorage.42" }
%"class.Eigen::DenseStorage.42" = type { %"struct.Eigen::internal::plain_array.43" }
%"struct.Eigen::internal::plain_array.43" = type { [9 x double] }

@.str.5 = private unnamed_addr constant [146 x i8] c"generated/home/dtcxzyw/WorkSpace/Projects/compilers/llvm-opt-benchmark/bench/open3d/Open3D/cpp/open3d/pipelines/integration/UniformTSDFVolume.cpp\00", align 1
@.str.6 = private unnamed_addr constant [26 x i8] c"Unsupported image format.\00", align 1
@.str.7 = private unnamed_addr constant [65 x i8] c"Depth image size is ({} x {}), but got ({} x {}) from intrinsic.\00", align 1
@.str.8 = private unnamed_addr constant [65 x i8] c"Color image size is ({} x {}), but got ({} x {}) from intrinsic.\00", align 1

; Function Attrs: mustprogress nounwind ssp uwtable
define linkonce_odr noundef ptr @_ZNKSt12__shared_ptrIN6open3d8geometry5ImageELN9__gnu_cxx12_Lock_policyE2EE3getEv(ptr noundef nonnull align 8 dereferenceable(16) %0) #0 comdat align 2 {
  %2 = alloca ptr, align 8
  store ptr %0, ptr %2, align 8, !tbaa !188
  %3 = load ptr, ptr %2, align 8
  %4 = getelementptr inbounds nuw %"class.std::__shared_ptr.45", ptr %3, i32 0, i32 0
  %5 = load ptr, ptr %4, align 8, !tbaa !879
  ret ptr %5
}

; Function Attrs: mustprogress nounwind ssp uwtable
define linkonce_odr noundef ptr @_ZNKSt19__shared_ptr_accessIN6open3d8geometry5ImageELN9__gnu_cxx12_Lock_policyE2ELb0ELb0EE6_M_getEv(ptr noundef nonnull align 1 dereferenceable(1) %0) #0 comdat align 2 {
  %2 = alloca ptr, align 8
  store ptr %0, ptr %2, align 8, !tbaa !186
  %3 = load ptr, ptr %2, align 8
  %4 = call noundef ptr @_ZNKSt12__shared_ptrIN6open3d8geometry5ImageELN9__gnu_cxx12_Lock_policyE2EE3getEv(ptr noundef nonnull align 8 dereferenceable(16) %3) #32
  ret ptr %4
}

; Function Attrs: mustprogress nounwind ssp uwtable
define linkonce_odr noundef nonnull align 8 dereferenceable(88) ptr @_ZNKSt19__shared_ptr_accessIN6open3d8geometry5ImageELN9__gnu_cxx12_Lock_policyE2ELb0ELb0EEdeEv(ptr noundef nonnull align 1 dereferenceable(1) %0) #0 comdat align 2 {
  %2 = alloca ptr, align 8
  store ptr %0, ptr %2, align 8, !tbaa !186
  %3 = load ptr, ptr %2, align 8
  br label %4

4:                                                ; preds = %1
  br label %5

5:                                                ; preds = %4
  br label %6

6:                                                ; preds = %5
  %7 = call noundef ptr @_ZNKSt19__shared_ptr_accessIN6open3d8geometry5ImageELN9__gnu_cxx12_Lock_policyE2ELb0ELb0EE6_M_getEv(ptr noundef nonnull align 1 dereferenceable(1) %3) #32
  ret ptr %7
}

; Function Attrs: mustprogress ssp uwtable
define void @_ZN6open3d9pipelines11integration17UniformTSDFVolume9IntegrateERKNS_8geometry9RGBDImageERKNS_6camera22PinholeCameraIntrinsicERKN5Eigen6MatrixIdLi4ELi4ELi0ELi4ELi4EEE(ptr noundef nonnull align 8 dereferenceable(96) %0, ptr noundef nonnull align 8 dereferenceable(224) %1, ptr noundef nonnull align 8 dereferenceable(88) %2, ptr noundef nonnull align 16 dereferenceable(128) %3) unnamed_addr #1 align 2 personality ptr @__gxx_personality_v0 {
  %5 = alloca ptr, align 8
  %6 = alloca ptr, align 8
  %7 = alloca ptr, align 8
  %8 = alloca ptr, align 8
  %9 = alloca %"class.std::shared_ptr.44", align 8
  %10 = alloca ptr, align 8
  %11 = alloca i32, align 4
  store ptr %0, ptr %5, align 8, !tbaa !4
  store ptr %1, ptr %6, align 8, !tbaa !9
  store ptr %2, ptr %7, align 8, !tbaa !11
  store ptr %3, ptr %8, align 8, !tbaa !13
  %12 = load ptr, ptr %5, align 8
  %13 = load ptr, ptr %6, align 8, !tbaa !9
  %14 = getelementptr inbounds nuw %"class.open3d::geometry::RGBDImage", ptr %13, i32 0, i32 2
  %15 = getelementptr inbounds nuw %"class.open3d::geometry::Image", ptr %14, i32 0, i32 3
  %16 = load i32, ptr %15, align 8, !tbaa !15
  %17 = icmp ne i32 %16, 1
  br i1 %17, label %64, label %18

18:                                               ; preds = %4
  %19 = load ptr, ptr %6, align 8, !tbaa !9
  %20 = getelementptr inbounds nuw %"class.open3d::geometry::RGBDImage", ptr %19, i32 0, i32 2
  %21 = getelementptr inbounds nuw %"class.open3d::geometry::Image", ptr %20, i32 0, i32 4
  %22 = load i32, ptr %21, align 4, !tbaa !30
  %23 = icmp ne i32 %22, 4
  br i1 %23, label %64, label %24

24:                                               ; preds = %18
  %25 = getelementptr inbounds nuw %"class.open3d::pipelines::integration::TSDFVolume", ptr %12, i32 0, i32 3
  %26 = load i32, ptr %25, align 8, !tbaa !31
  %27 = icmp eq i32 %26, 1
  br i1 %27, label %28, label %34

28:                                               ; preds = %24
  %29 = load ptr, ptr %6, align 8, !tbaa !9
  %30 = getelementptr inbounds nuw %"class.open3d::geometry::RGBDImage", ptr %29, i32 0, i32 1
  %31 = getelementptr inbounds nuw %"class.open3d::geometry::Image", ptr %30, i32 0, i32 3
  %32 = load i32, ptr %31, align 8, !tbaa !35
  %33 = icmp ne i32 %32, 3
  br i1 %33, label %64, label %34

34:                                               ; preds = %28, %24
  %35 = getelementptr inbounds nuw %"class.open3d::pipelines::integration::TSDFVolume", ptr %12, i32 0, i32 3
  %36 = load i32, ptr %35, align 8, !tbaa !31
  %37 = icmp eq i32 %36, 1
  br i1 %37, label %38, label %44

38:                                               ; preds = %34
  %39 = load ptr, ptr %6, align 8, !tbaa !9
  %40 = getelementptr inbounds nuw %"class.open3d::geometry::RGBDImage", ptr %39, i32 0, i32 1
  %41 = getelementptr inbounds nuw %"class.open3d::geometry::Image", ptr %40, i32 0, i32 4
  %42 = load i32, ptr %41, align 4, !tbaa !36
  %43 = icmp ne i32 %42, 1
  br i1 %43, label %64, label %44

44:                                               ; preds = %38, %34
  %45 = getelementptr inbounds nuw %"class.open3d::pipelines::integration::TSDFVolume", ptr %12, i32 0, i32 3
  %46 = load i32, ptr %45, align 8, !tbaa !31
  %47 = icmp eq i32 %46, 2
  br i1 %47, label %48, label %54

48:                                               ; preds = %44
  %49 = load ptr, ptr %6, align 8, !tbaa !9
  %50 = getelementptr inbounds nuw %"class.open3d::geometry::RGBDImage", ptr %49, i32 0, i32 1
  %51 = getelementptr inbounds nuw %"class.open3d::geometry::Image", ptr %50, i32 0, i32 3
  %52 = load i32, ptr %51, align 8, !tbaa !35
  %53 = icmp ne i32 %52, 1
  br i1 %53, label %64, label %54

54:                                               ; preds = %48, %44
  %55 = getelementptr inbounds nuw %"class.open3d::pipelines::integration::TSDFVolume", ptr %12, i32 0, i32 3
  %56 = load i32, ptr %55, align 8, !tbaa !31
  %57 = icmp eq i32 %56, 2
  br i1 %57, label %58, label %65

58:                                               ; preds = %54
  %59 = load ptr, ptr %6, align 8, !tbaa !9
  %60 = getelementptr inbounds nuw %"class.open3d::geometry::RGBDImage", ptr %59, i32 0, i32 1
  %61 = getelementptr inbounds nuw %"class.open3d::geometry::Image", ptr %60, i32 0, i32 4
  %62 = load i32, ptr %61, align 4, !tbaa !36
  %63 = icmp ne i32 %62, 4
  br i1 %63, label %64, label %65

64:                                               ; preds = %58, %48, %38, %28, %18, %4
  call void @_ZN6open3d7utility6Logger9LogError_IJEEEvPKciS4_S4_DpOT_(ptr noundef @.str.5, i32 noundef 58, ptr noundef @__PRETTY_FUNCTION__._ZN6open3d9pipelines11integration17UniformTSDFVolume9IntegrateERKNS_8geometry9RGBDImageERKNS_6camera22PinholeCameraIntrinsicERKN5Eigen6MatrixIdLi4ELi4ELi0ELi4ELi4EEE, ptr noundef @.str.6) #34
  unreachable

65:                                               ; preds = %58, %54
  %66 = load ptr, ptr %6, align 8, !tbaa !9
  %67 = getelementptr inbounds nuw %"class.open3d::geometry::RGBDImage", ptr %66, i32 0, i32 2
  %68 = getelementptr inbounds nuw %"class.open3d::geometry::Image", ptr %67, i32 0, i32 1
  %69 = load i32, ptr %68, align 8, !tbaa !37
  %70 = load ptr, ptr %7, align 8, !tbaa !11
  %71 = getelementptr inbounds nuw %"class.open3d::camera::PinholeCameraIntrinsic", ptr %70, i32 0, i32 1
  %72 = load i32, ptr %71, align 8, !tbaa !38
  %73 = icmp ne i32 %69, %72
  br i1 %73, label %83, label %74

74:                                               ; preds = %65
  %75 = load ptr, ptr %6, align 8, !tbaa !9
  %76 = getelementptr inbounds nuw %"class.open3d::geometry::RGBDImage", ptr %75, i32 0, i32 2
  %77 = getelementptr inbounds nuw %"class.open3d::geometry::Image", ptr %76, i32 0, i32 2
  %78 = load i32, ptr %77, align 4, !tbaa !45
  %79 = load ptr, ptr %7, align 8, !tbaa !11
  %80 = getelementptr inbounds nuw %"class.open3d::camera::PinholeCameraIntrinsic", ptr %79, i32 0, i32 2
  %81 = load i32, ptr %80, align 4, !tbaa !46
  %82 = icmp ne i32 %78, %81
  br i1 %82, label %83, label %94

83:                                               ; preds = %74, %65
  %84 = load ptr, ptr %6, align 8, !tbaa !9
  %85 = getelementptr inbounds nuw %"class.open3d::geometry::RGBDImage", ptr %84, i32 0, i32 2
  %86 = getelementptr inbounds nuw %"class.open3d::geometry::Image", ptr %85, i32 0, i32 1
  %87 = load ptr, ptr %6, align 8, !tbaa !9
  %88 = getelementptr inbounds nuw %"class.open3d::geometry::RGBDImage", ptr %87, i32 0, i32 2
  %89 = getelementptr inbounds nuw %"class.open3d::geometry::Image", ptr %88, i32 0, i32 2
  %90 = load ptr, ptr %7, align 8, !tbaa !11
  %91 = getelementptr inbounds nuw %"class.open3d::camera::PinholeCameraIntrinsic", ptr %90, i32 0, i32 1
  %92 = load ptr, ptr %7, align 8, !tbaa !11
  %93 = getelementptr inbounds nuw %"class.open3d::camera::PinholeCameraIntrinsic", ptr %92, i32 0, i32 2
  call void @_ZN6open3d7utility6Logger9LogError_IJRKiS4_S4_S4_EEEvPKciS6_S6_DpOT_(ptr noundef @.str.5, i32 noundef 66, ptr noundef @__PRETTY_FUNCTION__._ZN6open3d9pipelines11integration17UniformTSDFVolume9IntegrateERKNS_8geometry9RGBDImageERKNS_6camera22PinholeCameraIntrinsicERKN5Eigen6MatrixIdLi4ELi4ELi0ELi4ELi4EEE, ptr noundef @.str.7, ptr noundef nonnull align 4 dereferenceable(4) %86, ptr noundef nonnull align 4 dereferenceable(4) %89, ptr noundef nonnull align 4 dereferenceable(4) %91, ptr noundef nonnull align 4 dereferenceable(4) %93) #34
  unreachable

94:                                               ; preds = %74
  %95 = getelementptr inbounds nuw %"class.open3d::pipelines::integration::TSDFVolume", ptr %12, i32 0, i32 3
  %96 = load i32, ptr %95, align 8, !tbaa !31
  %97 = icmp ne i32 %96, 0
  br i1 %97, label %98, label %127

98:                                               ; preds = %94
  %99 = load ptr, ptr %6, align 8, !tbaa !9
  %100 = getelementptr inbounds nuw %"class.open3d::geometry::RGBDImage", ptr %99, i32 0, i32 1
  %101 = getelementptr inbounds nuw %"class.open3d::geometry::Image", ptr %100, i32 0, i32 1
  %102 = load i32, ptr %101, align 8, !tbaa !47
  %103 = load ptr, ptr %7, align 8, !tbaa !11
  %104 = getelementptr inbounds nuw %"class.open3d::camera::PinholeCameraIntrinsic", ptr %103, i32 0, i32 1
  %105 = load i32, ptr %104, align 8, !tbaa !38
  %106 = icmp ne i32 %102, %105
  br i1 %106, label %116, label %107

107:                                              ; preds = %98
  %108 = load ptr, ptr %6, align 8, !tbaa !9
  %109 = getelementptr inbounds nuw %"class.open3d::geometry::RGBDImage", ptr %108, i32 0, i32 1
  %110 = getelementptr inbounds nuw %"class.open3d::geometry::Image", ptr %109, i32 0, i32 2
  %111 = load i32, ptr %110, align 4, !tbaa !48
  %112 = load ptr, ptr %7, align 8, !tbaa !11
  %113 = getelementptr inbounds nuw %"class.open3d::camera::PinholeCameraIntrinsic", ptr %112, i32 0, i32 2
  %114 = load i32, ptr %113, align 4, !tbaa !46
  %115 = icmp ne i32 %111, %114
  br i1 %115, label %116, label %127

116:                                              ; preds = %107, %98
  %117 = load ptr, ptr %6, align 8, !tbaa !9
  %118 = getelementptr inbounds nuw %"class.open3d::geometry::RGBDImage", ptr %117, i32 0, i32 1
  %119 = getelementptr inbounds nuw %"class.open3d::geometry::Image", ptr %118, i32 0, i32 1
  %120 = load ptr, ptr %6, align 8, !tbaa !9
  %121 = getelementptr inbounds nuw %"class.open3d::geometry::RGBDImage", ptr %120, i32 0, i32 1
  %122 = getelementptr inbounds nuw %"class.open3d::geometry::Image", ptr %121, i32 0, i32 2
  %123 = load ptr, ptr %7, align 8, !tbaa !11
  %124 = getelementptr inbounds nuw %"class.open3d::camera::PinholeCameraIntrinsic", ptr %123, i32 0, i32 1
  %125 = load ptr, ptr %7, align 8, !tbaa !11
  %126 = getelementptr inbounds nuw %"class.open3d::camera::PinholeCameraIntrinsic", ptr %125, i32 0, i32 2
  call void @_ZN6open3d7utility6Logger9LogError_IJRKiS4_S4_S4_EEEvPKciS6_S6_DpOT_(ptr noundef @.str.5, i32 noundef 75, ptr noundef @__PRETTY_FUNCTION__._ZN6open3d9pipelines11integration17UniformTSDFVolume9IntegrateERKNS_8geometry9RGBDImageERKNS_6camera22PinholeCameraIntrinsicERKN5Eigen6MatrixIdLi4ELi4ELi0ELi4ELi4EEE, ptr noundef @.str.8, ptr noundef nonnull align 4 dereferenceable(4) %119, ptr noundef nonnull align 4 dereferenceable(4) %122, ptr noundef nonnull align 4 dereferenceable(4) %124, ptr noundef nonnull align 4 dereferenceable(4) %126) #34
  unreachable

127:                                              ; preds = %107, %94
  call void @llvm.lifetime.start.p0(i64 16, ptr %9) #32
  %128 = load ptr, ptr %7, align 8, !tbaa !11
  call void @_ZN6open3d8geometry5Image47CreateDepthToCameraDistanceMultiplierFloatImageERKNS_6camera22PinholeCameraIntrinsicE(ptr dead_on_unwind writable sret(%"class.std::shared_ptr.44") align 8 %9, ptr noundef nonnull align 8 dereferenceable(88) %128)
  %129 = load ptr, ptr %6, align 8, !tbaa !9
  %130 = load ptr, ptr %7, align 8, !tbaa !11
  %131 = load ptr, ptr %8, align 8, !tbaa !13
  %132 = call noundef nonnull align 8 dereferenceable(88) ptr @_ZNKSt19__shared_ptr_accessIN6open3d8geometry5ImageELN9__gnu_cxx12_Lock_policyE2ELb0ELb0EEdeEv(ptr noundef nonnull align 1 dereferenceable(1) %9) #32
  invoke void @_ZN6open3d9pipelines11integration17UniformTSDFVolume44IntegrateWithDepthToCameraDistanceMultiplierERKNS_8geometry9RGBDImageERKNS_6camera22PinholeCameraIntrinsicERKN5Eigen6MatrixIdLi4ELi4ELi0ELi4ELi4EEERKNS3_5ImageE(ptr noundef nonnull align 8 dereferenceable(96) %12, ptr noundef nonnull align 8 dereferenceable(224) %129, ptr noundef nonnull align 8 dereferenceable(88) %130, ptr noundef nonnull align 16 dereferenceable(128) %131, ptr noundef nonnull align 8 dereferenceable(88) %132)
          to label %133 unwind label %134

133:                                              ; preds = %127
  call void @_ZNSt12__shared_ptrIN6open3d8geometry5ImageELN9__gnu_cxx12_Lock_policyE2EED2Ev(ptr noundef nonnull align 8 dereferenceable(16) %9) #32
  call void @llvm.lifetime.end.p0(i64 16, ptr %9) #32
  ret void

134:                                              ; preds = %127
  %135 = landingpad { ptr, i32 }
          cleanup
  %136 = extractvalue { ptr, i32 } %135, 0
  store ptr %136, ptr %10, align 8
  %137 = extractvalue { ptr, i32 } %135, 1
  store i32 %137, ptr %11, align 4
  call void @_ZNSt12__shared_ptrIN6open3d8geometry5ImageELN9__gnu_cxx12_Lock_policyE2EED2Ev(ptr noundef nonnull align 8 dereferenceable(16) %9) #32
  call void @llvm.lifetime.end.p0(i64 16, ptr %9) #32
  br label %138

138:                                              ; preds = %134
  %139 = load ptr, ptr %10, align 8
  %140 = load i32, ptr %11, align 4
  %141 = insertvalue { ptr, i32 } poison, ptr %139, 0
  %142 = insertvalue { ptr, i32 } %141, i32 %140, 1
  resume { ptr, i32 } %142
}