; Function Attrs: mustprogress ssp uwtable
define void @_ZN6open3d9pipelines11integration17UniformTSDFVolume9IntegrateERKNS_8geometry9RGBDImageERKNS_6camera22PinholeCameraIntrinsicERKN5Eigen6MatrixIdLi4ELi4ELi0ELi4ELi4EEE(ptr noundef nonnull align 8 dereferenceable(96) %0, ptr noundef nonnull align 8 dereferenceable(224) %1, ptr noundef nonnull align 8 dereferenceable(88) %2, ptr noundef nonnull readonly align 16 captures(none) dereferenceable(128) %3) unnamed_addr #2 align 2 personality ptr @__gxx_personality_v0 {
  %5 = alloca %"class.std::shared_ptr.44", align 8
  %6 = getelementptr inbounds nuw i8, ptr %1, i64 192
  %7 = load i32, ptr %6, align 8, !tbaa !11
  %.not = icmp eq i32 %7, 1
  %8 = getelementptr inbounds nuw i8, ptr %1, i64 196
  %9 = load i32, ptr %8, align 4
  %.not29 = icmp eq i32 %9, 4
  %or.cond = select i1 %.not, i1 %.not29, i1 false
  br i1 %or.cond, label %10, label %22

10:                                               ; preds = %4
  %11 = getelementptr inbounds nuw i8, ptr %0, i64 24
  %12 = load i32, ptr %11, align 8, !tbaa !26
  %13 = icmp ne i32 %12, 1
  %14 = getelementptr inbounds nuw i8, ptr %1, i64 104
  %15 = load i32, ptr %14, align 8
  %.not30 = icmp eq i32 %15, 3
  %or.cond41 = select i1 %13, i1 true, i1 %.not30
  br i1 %or.cond41, label %16, label %22

16:                                               ; preds = %10
  %17 = getelementptr inbounds nuw i8, ptr %1, i64 108
  %18 = load i32, ptr %17, align 4
  %.not31 = icmp eq i32 %18, 1
  %or.cond43 = select i1 %13, i1 true, i1 %.not31
  br i1 %or.cond43, label %19, label %22

19:                                               ; preds = %16
  %20 = icmp ne i32 %12, 2
  %.not32 = icmp eq i32 %15, 1
  %.not33 = icmp eq i32 %18, 4
  %21 = select i1 %.not32, i1 %.not33, i1 false
  %or.cond50 = select i1 %20, i1 true, i1 %21
  br i1 %or.cond50, label %23, label %22

22:                                               ; preds = %19, %16, %10, %4
  tail call void @_ZN6open3d7utility6Logger9LogError_IJEEEvPKciS4_S4_DpOT_(ptr noundef nonnull @.str.5, i32 noundef 58, ptr noundef nonnull @__PRETTY_FUNCTION__._ZN6open3d9pipelines11integration17UniformTSDFVolume9IntegrateERKNS_8geometry9RGBDImageERKNS_6camera22PinholeCameraIntrinsicERKN5Eigen6MatrixIdLi4ELi4ELi0ELi4ELi4EEE, ptr noundef nonnull @.str.6) #38
  unreachable

23:                                               ; preds = %19
  %24 = getelementptr inbounds nuw i8, ptr %1, i64 184
  %25 = load i32, ptr %24, align 8, !tbaa !30
  %26 = getelementptr inbounds nuw i8, ptr %2, i64 8
  %27 = load i32, ptr %26, align 8, !tbaa !31
  %.not34 = icmp eq i32 %25, %27
  br i1 %.not34, label %28, label %33

28:                                               ; preds = %23
  %29 = getelementptr inbounds nuw i8, ptr %1, i64 188
  %30 = load i32, ptr %29, align 4, !tbaa !38
  %31 = getelementptr inbounds nuw i8, ptr %2, i64 12
  %32 = load i32, ptr %31, align 4, !tbaa !39
  %.not35 = icmp eq i32 %30, %32
  br i1 %.not35, label %36, label %33

33:                                               ; preds = %28, %23
  %34 = getelementptr inbounds nuw i8, ptr %1, i64 188
  %35 = getelementptr inbounds nuw i8, ptr %2, i64 12
  tail call void @_ZN6open3d7utility6Logger9LogError_IJRKiS4_S4_S4_EEEvPKciS6_S6_DpOT_(ptr noundef nonnull @.str.5, i32 noundef 66, ptr noundef nonnull @__PRETTY_FUNCTION__._ZN6open3d9pipelines11integration17UniformTSDFVolume9IntegrateERKNS_8geometry9RGBDImageERKNS_6camera22PinholeCameraIntrinsicERKN5Eigen6MatrixIdLi4ELi4ELi0ELi4ELi4EEE, ptr noundef nonnull @.str.7, ptr noundef nonnull align 4 dereferenceable(4) %24, ptr noundef nonnull align 4 dereferenceable(4) %34, ptr noundef nonnull align 4 dereferenceable(4) %26, ptr noundef nonnull align 4 dereferenceable(4) %35) #38
  unreachable

36:                                               ; preds = %28
  %.not36 = icmp eq i32 %12, 0
  br i1 %.not36, label %43, label %37

37:                                               ; preds = %36
  %38 = getelementptr inbounds nuw i8, ptr %1, i64 96
  %39 = load i32, ptr %38, align 8, !tbaa !40
  %.not37 = icmp eq i32 %39, %25
  %40 = getelementptr inbounds nuw i8, ptr %1, i64 100
  %41 = load i32, ptr %40, align 4
  %.not38 = icmp eq i32 %41, %30
  %or.cond49 = select i1 %.not37, i1 %.not38, i1 false
  br i1 %or.cond49, label %43, label %42

42:                                               ; preds = %37
  tail call void @_ZN6open3d7utility6Logger9LogError_IJRKiS4_S4_S4_EEEvPKciS6_S6_DpOT_(ptr noundef nonnull @.str.5, i32 noundef 75, ptr noundef nonnull @__PRETTY_FUNCTION__._ZN6open3d9pipelines11integration17UniformTSDFVolume9IntegrateERKNS_8geometry9RGBDImageERKNS_6camera22PinholeCameraIntrinsicERKN5Eigen6MatrixIdLi4ELi4ELi0ELi4ELi4EEE, ptr noundef nonnull @.str.8, ptr noundef nonnull align 4 dereferenceable(4) %38, ptr noundef nonnull align 4 dereferenceable(4) %40, ptr noundef nonnull align 4 dereferenceable(4) %26, ptr noundef nonnull align 4 dereferenceable(4) %31) #38
  unreachable

43:                                               ; preds = %37, %36
  call void @llvm.lifetime.start.p0(i64 16, ptr nonnull %5) #30
  call void @_ZN6open3d8geometry5Image47CreateDepthToCameraDistanceMultiplierFloatImageERKNS_6camera22PinholeCameraIntrinsicE(ptr dead_on_unwind nonnull writable sret(%"class.std::shared_ptr.44") align 8 %5, ptr noundef nonnull align 8 dereferenceable(88) %2)
  %44 = load ptr, ptr %5, align 8, !tbaa !41
  invoke void @_ZN6open3d9pipelines11integration17UniformTSDFVolume44IntegrateWithDepthToCameraDistanceMultiplierERKNS_8geometry9RGBDImageERKNS_6camera22PinholeCameraIntrinsicERKN5Eigen6MatrixIdLi4ELi4ELi0ELi4ELi4EEERKNS3_5ImageE(ptr noundef nonnull align 8 dereferenceable(96) %0, ptr noundef nonnull align 8 dereferenceable(224) %1, ptr noundef nonnull align 8 dereferenceable(88) %2, ptr noundef nonnull align 16 dereferenceable(128) %3, ptr noundef nonnull align 8 dereferenceable(88) %44)
          to label %45 unwind label %69

45:                                               ; preds = %43
  %46 = getelementptr inbounds nuw i8, ptr %5, i64 8
  %47 = load ptr, ptr %46, align 8, !tbaa !46
  %.not.i.i = icmp eq ptr %47, null
  br i1 %.not.i.i, label %_ZNSt12__shared_ptrIN6open3d8geometry5ImageELN9__gnu_cxx12_Lock_policyE2EED2Ev.exit, label %48

48:                                               ; preds = %45
  %49 = getelementptr inbounds nuw i8, ptr %47, i64 8
  %50 = load atomic i64, ptr %49 acquire, align 8
  %51 = icmp eq i64 %50, 4294967297
  %52 = trunc i64 %50 to i32
  br i1 %51, label %53, label %61

53:                                               ; preds = %48
  store i32 0, ptr %49, align 8, !tbaa !47
  %54 = getelementptr inbounds nuw i8, ptr %47, i64 12
  store i32 0, ptr %54, align 4, !tbaa !49
  %55 = load ptr, ptr %47, align 8, !tbaa !50
  %56 = getelementptr inbounds nuw i8, ptr %55, i64 16
  %57 = load ptr, ptr %56, align 8
  call void %57(ptr noundef nonnull align 8 dereferenceable(16) %47) #30
  %58 = load ptr, ptr %47, align 8, !tbaa !50
  %59 = getelementptr inbounds nuw i8, ptr %58, i64 24
  %60 = load ptr, ptr %59, align 8
  call void %60(ptr noundef nonnull align 8 dereferenceable(16) %47) #30
  br label %_ZNSt12__shared_ptrIN6open3d8geometry5ImageELN9__gnu_cxx12_Lock_policyE2EED2Ev.exit

61:                                               ; preds = %48
  %62 = load i8, ptr @__libc_single_threaded, align 1, !tbaa !52
  %.not.i.i.i = icmp eq i8 %62, 0
  br i1 %.not.i.i.i, label %65, label %63

63:                                               ; preds = %61
  %64 = add nsw i32 %52, -1
  store i32 %64, ptr %49, align 4, !tbaa !53
  br label %_ZN9__gnu_cxx27__exchange_and_add_dispatchEPii.exit.i.i.i

65:                                               ; preds = %61
  %66 = atomicrmw volatile add ptr %49, i32 -1 acq_rel, align 4
  br label %_ZN9__gnu_cxx27__exchange_and_add_dispatchEPii.exit.i.i.i

_ZN9__gnu_cxx27__exchange_and_add_dispatchEPii.exit.i.i.i: ; preds = %65, %63
  %.0.i.i.i.i = phi i32 [ %52, %63 ], [ %66, %65 ]
  %67 = icmp eq i32 %.0.i.i.i.i, 1
  br i1 %67, label %68, label %_ZNSt12__shared_ptrIN6open3d8geometry5ImageELN9__gnu_cxx12_Lock_policyE2EED2Ev.exit, !prof !54

68:                                               ; preds = %_ZN9__gnu_cxx27__exchange_and_add_dispatchEPii.exit.i.i.i
  call void @_ZNSt16_Sp_counted_baseILN9__gnu_cxx12_Lock_policyE2EE24_M_release_last_use_coldEv(ptr noundef nonnull align 8 dereferenceable(16) %47) #30
  br label %_ZNSt12__shared_ptrIN6open3d8geometry5ImageELN9__gnu_cxx12_Lock_policyE2EED2Ev.exit

_ZNSt12__shared_ptrIN6open3d8geometry5ImageELN9__gnu_cxx12_Lock_policyE2EED2Ev.exit: ; preds = %45, %53, %_ZN9__gnu_cxx27__exchange_and_add_dispatchEPii.exit.i.i.i, %68
  call void @llvm.lifetime.end.p0(i64 16, ptr nonnull %5) #30
  ret void

69:                                               ; preds = %43
  %70 = landingpad { ptr, i32 }
          cleanup
  call void @_ZNSt12__shared_ptrIN6open3d8geometry5ImageELN9__gnu_cxx12_Lock_policyE2EED2Ev(ptr noundef nonnull align 8 dereferenceable(16) %5) #30
  call void @llvm.lifetime.end.p0(i64 16, ptr nonnull %5) #30
  resume { ptr, i32 } %70
}